target datalayout = "e-m:e-p270:32:32-p271:32:32-p272:64:64-i64:64-i128:128-f80:128-n8:16:32:64-S128"
target triple = "x86_64-pc-linux-gnu"

@_ZN5arrow4util8internal16utf8_large_tableE = global <{ i16, [2303 x i16] }> <{ i16 -1, [2303 x i16] zeroinitializer }>, align 16

; Function Attrs: mustprogress nounwind uwtable
define internal void @_ZN5arrow4util8internalL20InitializeLargeTableEv() #2 {
  %1 = alloca i32, align 4
  %2 = alloca i32, align 4
  %3 = alloca i32, align 4
  %4 = alloca i32, align 4
  %5 = alloca i8, align 1
  call void @llvm.lifetime.start.p0(i64 4, ptr %1) #19
  store i32 0, ptr %1, align 4, !tbaa !17
  br label %6

6:                                                ; preds = %55, %0
  %7 = load i32, ptr %1, align 4, !tbaa !17
  %8 = icmp ult i32 %7, 9
  br i1 %8, label %10, label %9

9:                                                ; preds = %6
  store i32 2, ptr %2, align 4
  call void @llvm.lifetime.end.p0(i64 4, ptr %1) #19
  br label %58

10:                                               ; preds = %6
  call void @llvm.lifetime.start.p0(i64 4, ptr %3) #19
  store i32 0, ptr %3, align 4, !tbaa !17
  br label %11

11:                                               ; preds = %51, %10
  %12 = load i32, ptr %3, align 4, !tbaa !17
  %13 = icmp ult i32 %12, 256
  br i1 %13, label %15, label %14

14:                                               ; preds = %11
  store i32 5, ptr %2, align 4
  call void @llvm.lifetime.end.p0(i64 4, ptr %3) #19
  br label %54

15:                                               ; preds = %11
  call void @llvm.lifetime.start.p0(i64 4, ptr %4) #19
  %16 = load i32, ptr %3, align 4, !tbaa !17
  %17 = zext i32 %16 to i64
  %18 = getelementptr inbounds nuw [364 x i8], ptr @_ZN5arrow4util8internal16utf8_small_tableE, i64 0, i64 %17
  %19 = load i8, ptr %18, align 1, !tbaa !19
  %20 = zext i8 %19 to i32
  store i32 %20, ptr %4, align 4, !tbaa !17
  call void @llvm.lifetime.start.p0(i64 1, ptr %5) #19
  %21 = load i32, ptr %1, align 4, !tbaa !17
  %22 = mul i32 %21, 12
  %23 = add i32 256, %22
  %24 = load i32, ptr %4, align 4, !tbaa !17
  %25 = add i32 %23, %24
  %26 = zext i32 %25 to i64
  %27 = getelementptr inbounds nuw [364 x i8], ptr @_ZN5arrow4util8internal16utf8_small_tableE, i64 0, i64 %26
  %28 = load i8, ptr %27, align 1, !tbaa !19
  %29 = zext i8 %28 to i32
  %30 = sdiv i32 %29, 12
  %31 = trunc i32 %30 to i8
  store i8 %31, ptr %5, align 1, !tbaa !19
  br label %32

32:                                               ; preds = %33, %15
  br i1 false, label %33, label %34

33:                                               ; preds = %32
  br label %32, !llvm.loop !20

34:                                               ; preds = %32
  br label %35

35:                                               ; preds = %36, %34
  br i1 false, label %36, label %37

36:                                               ; preds = %35
  br label %35, !llvm.loop !21

37:                                               ; preds = %35
  br label %38

38:                                               ; preds = %39, %37
  br i1 false, label %39, label %40

39:                                               ; preds = %38
  br label %38, !llvm.loop !22

40:                                               ; preds = %38
  %41 = load i8, ptr %5, align 1, !tbaa !19
  %42 = zext i8 %41 to i32
  %43 = mul nsw i32 %42, 256
  %44 = trunc i32 %43 to i16
  %45 = load i32, ptr %1, align 4, !tbaa !17
  %46 = mul i32 %45, 256
  %47 = load i32, ptr %3, align 4, !tbaa !17
  %48 = add i32 %46, %47
  %49 = zext i32 %48 to i64
  %50 = getelementptr inbounds nuw [2304 x i16], ptr @_ZN5arrow4util8internal16utf8_large_tableE, i64 0, i64 %49
  store i16 %44, ptr %50, align 2, !tbaa !23
  call void @llvm.lifetime.end.p0(i64 1, ptr %5) #19
  call void @llvm.lifetime.end.p0(i64 4, ptr %4) #19
  br label %51

51:                                               ; preds = %40
  %52 = load i32, ptr %3, align 4, !tbaa !17
  %53 = add i32 %52, 1
  store i32 %53, ptr %3, align 4, !tbaa !17
  br label %11, !llvm.loop !25

54:                                               ; preds = %14
  br label %55

55:                                               ; preds = %54
  %56 = load i32, ptr %1, align 4, !tbaa !17
  %57 = add i32 %56, 1
  store i32 %57, ptr %1, align 4, !tbaa !17
  br label %6, !llvm.loop !26

58:                                               ; preds = %9
  ret void
}