; Function Attrs: mustprogress nofree norecurse nosync nounwind memory(write, argmem: none, inaccessiblemem: none) uwtable
define internal void @_ZN5arrow4util8internalL20InitializeLargeTableEv() #3 {
  br label %.preheader

.preheader:                                       ; preds = %0, %5
  %indvars.iv14 = phi i64 [ 0, %0 ], [ %indvars.iv.next15, %5 ]
  %1 = mul nuw nsw i64 %indvars.iv14, 12
  %2 = add nuw nsw i64 %1, 256
  %3 = shl nuw nsw i64 %indvars.iv14, 8
  br label %6

4:                                                ; preds = %5
  ret void

5:                                                ; preds = %6
  %indvars.iv.next15 = add nuw nsw i64 %indvars.iv14, 1
  %exitcond17.not = icmp eq i64 %indvars.iv.next15, 9
  br i1 %exitcond17.not, label %4, label %.preheader, !llvm.loop !7

6:                                                ; preds = %.preheader, %6
  %indvars.iv = phi i64 [ 0, %.preheader ], [ %indvars.iv.next, %6 ]
  %7 = getelementptr inbounds nuw [364 x i8], ptr @_ZN5arrow4util8internal16utf8_small_tableE, i64 0, i64 %indvars.iv
  %8 = load i8, ptr %7, align 1, !tbaa !9
  %9 = zext i8 %8 to i64
  %10 = add nuw nsw i64 %2, %9
  %11 = getelementptr inbounds nuw [364 x i8], ptr @_ZN5arrow4util8internal16utf8_small_tableE, i64 0, i64 %10
  %12 = load i8, ptr %11, align 1, !tbaa !9
  %13 = udiv i8 %12, 12
  %14 = zext nneg i8 %13 to i16
  %15 = shl nuw nsw i16 %14, 8
  %16 = add nuw nsw i64 %indvars.iv, %3
  %17 = getelementptr inbounds nuw [2304 x i16], ptr @_ZN5arrow4util8internal16utf8_large_tableE, i64 0, i64 %16
  store i16 %15, ptr %17, align 2, !tbaa !10
  %indvars.iv.next = add nuw nsw i64 %indvars.iv, 1
  %exitcond.not = icmp eq i64 %indvars.iv.next, 256
  br i1 %exitcond.not, label %5, label %6, !llvm.loop !12
}